Certificate:
    Data:
        Version: 3 (0x2)
        Serial Number: 1 (0x1)
        Signature Algorithm: md5WithRSAEncryption
        Issuer: C=US, ST=Massachusetts, L=Boston, O=TestCA, O= 
        Validity
            Not Before: Feb  5 14:46:55 2012 GMT
            Not After : Feb  4 14:46:55 2013 GMT
        Subject: C=US, ST=Massachusetts, L=Boston, O=TestCA, O= , CN=*.google.com
        Subject Public Key Info:
            Public Key Algorithm: rsaEncryption
            RSA Public Key: (1024 bit)
                Modulus (1024 bit):
                    00:b8:6e:a8:8b:20:e4:22:4d:f4:34:df:cc:0d:ed:
                    61:0d:70:2d:36:1e:73:1b:f8:5b:cb:ed:1f:54:71:
                    28:25:76:ce:ec:22:42:e4:89:ce:87:c2:e0:e5:79:
                    aa:79:62:b2:3e:02:47:1d:95:55:b6:f2:0e:84:c8:
                    df:cd:8e:a7:39:a8:3c:d2:a5:9f:5a:bd:02:f1:d6:
                    0c:fb:8a:63:23:a3:1c:b2:03:53:ab:ab:6a:0d:b0:
                    b1:85:82:75:55:a0:0d:21:d0:5d:49:b2:9b:2e:d3:
                    f1:76:d8:a8:de:9a:4a:f1:4a:a1:3b:2d:6c:fc:e7:
                    c3:3a:a0:b0:ed:ef:d1:7d:b1
                Exponent: 65537 (0x10001)
        X509v3 extensions:
            X509v3 Basic Constraints: 
                CA:FALSE
            Netscape Comment: 
                OpenSSL Generated Certificate
            X509v3 Subject Key Identifier: 
                CF:EB:25:5E:80:E6:F5:EC:05:AA:A0:7D:F0:88:DD:19:52:B7:46:2D
            X509v3 Authority Key Identifier: 
                keyid:EE:BC:64:9E:72:FA:F8:1D:40:02:3F:1A:84:A3:CD:6F:B8:61:3D:79
                DirName:/C=US/ST=Massachusetts/L=Boston/O=TestCA/O= 
                serial:D1:ED:39:2E:7D:27:33:B0

    Signature Algorithm: md5WithRSAEncryption
        c3:e4:2e:d2:fe:78:34:0c:95:0d:90:70:56:f8:18:ef:cc:52:
        ad:d3:f7:83:79:fd:11:4c:93:59:5f:04:c9:02:4d:1c:5d:42:
        88:39:22:b3:62:ec:e5:c2:43:56:6c:27:ad:77:af:b9:c3:ea:
        54:1a:03:1f:e5:9c:38:50:a5:df:1a:80:a8:00:ef:7d:4a:d1:
        19:d3:1c:b7:80:aa:53:2e:45:17:7b:ec:41:d7:a1:06:fd:d9:
        fd:89:91:3c:4a:9c:a5:60:5d:c9:79:78:ec:eb:0e:0f:1b:e0:
        c3:6b:3e:b0:7c:b0:3a:ff:45:bb:9e:cb:fb:a8:44:80:de:b3:
        89:fa
-----BEGIN CERTIFICATE-----
MIIDFTCCAn6gAwIBAgIBATANBgkqhkiG9w0BAQQFADBTMQswCQYDVQQGEwJVUzEW
MBQGA1UECBMNTWFzc2FjaHVzZXR0czEPMA0GA1UEBxMGQm9zdG9uMQ8wDQYDVQQK
EwZUZXN0Q0ExCjAIBgNVBAoTASAwHhcNMTIwMjA1MTQ0NjU1WhcNMTMwMjA0MTQ0
NjU1WjBqMQswCQYDVQQGEwJVUzEWMBQGA1UECBMNTWFzc2FjaHVzZXR0czEPMA0G
A1UEBxMGQm9zdG9uMQ8wDQYDVQQKEwZUZXN0Q0ExCjAIBgNVBAoTASAxFTATBgNV
BAMUDCouZ29vZ2xlLmNvbTCBnzANBgkqhkiG9w0BAQEFAAOBjQAwgYkCgYEAuG6o
iyDkIk30NN/MDe1hDXAtNh5zG/hby+0fVHEoJXbO7CJC5InOh8Lg5XmqeWKyPgJH
HZVVtvIOhMjfzY6nOag80qWfWr0C8dYM+4pjI6McsgNTq6tqDbCxhYJ1VaANIdBd
SbKbLtPxdtio3ppK8UqhOy1s/OfDOqCw7e/RfbECAwEAAaOB4TCB3jAJBgNVHRME
AjAAMCwGCWCGSAGG+EIBDQQfFh1PcGVuU1NMIEdlbmVyYXRlZCBDZXJ0aWZpY2F0
ZTAdBgNVHQ4EFgQUz+slXoDm9ewFqqB98IjdGVK3Ri0wgYMGA1UdIwR8MHqAFO68
ZJ5y+vgdQAI/GoSjzW+4YT15oVekVTBTMQswCQYDVQQGEwJVUzEWMBQGA1UECBMN
TWFzc2FjaHVzZXR0czEPMA0GA1UEBxMGQm9zdG9uMQ8wDQYDVQQKEwZUZXN0Q0Ex
CjAIBgNVBAoTASCCCQDR7TkufSczsDANBgkqhkiG9w0BAQQFAAOBgQDD5C7S/ng0
DJUNkHBW+BjvzFKt0/eDef0RTJNZXwTJAk0cXUKIOSKzYuzlwkNWbCetd6+5w+pU
GgMf5Zw4UKXfGoCoAO99StEZ0xy3gKpTLkUXe+xB16EG/dn9iZE8SpylYF3JeXjs
6w4PG+DDaz6wfLA6/0W7nsv7qESA3rOJ+g==
-----END CERTIFICATE-----
