Certificate:
    Data:
        Version: 3 (0x2)
        Serial Number: 2 (0x2)
        Signature Algorithm: md5WithRSAEncryption
        Issuer: C=US, ST=Massachusetts, L=Boston, O=TestCA, O= 
        Validity
            Not Before: Feb  5 14:47:37 2012 GMT
            Not After : Feb  4 14:47:37 2013 GMT
        Subject: C=US, ST=Massachusetts, L=Boston, O=TestCA, O= , CN=google.com
        Subject Public Key Info:
            Public Key Algorithm: rsaEncryption
            RSA Public Key: (1024 bit)
                Modulus (1024 bit):
                    00:c6:95:9d:1b:c5:55:87:66:c1:42:7a:f8:40:6c:
                    7d:f3:61:52:08:fb:97:b8:69:40:63:8a:fa:dd:97:
                    b2:1f:69:9c:6e:5f:d6:1a:6a:48:ed:e7:5f:df:b9:
                    78:68:fb:e0:9d:e3:28:36:e4:14:62:ed:93:80:92:
                    14:c6:44:5a:04:92:6b:ec:2a:0e:f9:b5:18:41:03:
                    04:06:42:10:13:34:f9:36:13:78:a4:fa:9f:2b:02:
                    dc:3b:f2:7e:af:99:76:d3:80:94:4f:e2:89:4f:3a:
                    28:b7:e2:fd:d7:c1:c2:a7:8d:c9:4c:ac:0a:72:38:
                    38:ef:b9:21:c2:1f:cb:04:95
                Exponent: 65537 (0x10001)
        X509v3 extensions:
            X509v3 Basic Constraints: 
                CA:FALSE
            Netscape Comment: 
                OpenSSL Generated Certificate
            X509v3 Subject Key Identifier: 
                BF:03:26:08:5B:09:41:66:D7:88:7F:D2:DE:6A:E2:2C:9D:F4:96:DB
            X509v3 Authority Key Identifier: 
                keyid:EE:BC:64:9E:72:FA:F8:1D:40:02:3F:1A:84:A3:CD:6F:B8:61:3D:79
                DirName:/C=US/ST=Massachusetts/L=Boston/O=TestCA/O= 
                serial:D1:ED:39:2E:7D:27:33:B0

    Signature Algorithm: md5WithRSAEncryption
        24:fc:90:39:ab:6a:46:77:ae:7c:11:b9:ad:ad:45:a3:9b:e3:
        24:1e:d0:fe:18:5f:c2:07:49:c5:fd:e3:11:5a:a7:f2:9d:c4:
        07:db:40:21:eb:8f:4c:7d:86:70:d5:45:90:da:f0:44:97:c3:
        e0:f4:bd:2f:3f:7a:b9:a5:92:92:d1:7b:04:0e:f5:b6:07:ce:
        c7:a4:e7:6e:0c:17:b7:37:c7:a7:48:36:c3:a2:9e:41:c0:d9:
        dd:2a:5e:4c:d1:a2:1b:fe:34:4c:4f:a3:4d:91:b9:aa:f7:4f:
        8f:d4:45:9e:0f:85:c6:70:56:bd:29:74:50:05:29:16:28:0e:
        65:b8
-----BEGIN CERTIFICATE-----
MIIDEzCCAnygAwIBAgIBAjANBgkqhkiG9w0BAQQFADBTMQswCQYDVQQGEwJVUzEW
MBQGA1UECBMNTWFzc2FjaHVzZXR0czEPMA0GA1UEBxMGQm9zdG9uMQ8wDQYDVQQK
EwZUZXN0Q0ExCjAIBgNVBAoTASAwHhcNMTIwMjA1MTQ0NzM3WhcNMTMwMjA0MTQ0
NzM3WjBoMQswCQYDVQQGEwJVUzEWMBQGA1UECBMNTWFzc2FjaHVzZXR0czEPMA0G
A1UEBxMGQm9zdG9uMQ8wDQYDVQQKEwZUZXN0Q0ExCjAIBgNVBAoTASAxEzARBgNV
BAMTCmdvb2dsZS5jb20wgZ8wDQYJKoZIhvcNAQEBBQADgY0AMIGJAoGBAMaVnRvF
VYdmwUJ6+EBsffNhUgj7l7hpQGOK+t2Xsh9pnG5f1hpqSO3nX9+5eGj74J3jKDbk
FGLtk4CSFMZEWgSSa+wqDvm1GEEDBAZCEBM0+TYTeKT6nysC3Dvyfq+ZdtOAlE/i
iU86KLfi/dfBwqeNyUysCnI4OO+5IcIfywSVAgMBAAGjgeEwgd4wCQYDVR0TBAIw
ADAsBglghkgBhvhCAQ0EHxYdT3BlblNTTCBHZW5lcmF0ZWQgQ2VydGlmaWNhdGUw
HQYDVR0OBBYEFL8DJghbCUFm14h/0t5q4iyd9JbbMIGDBgNVHSMEfDB6gBTuvGSe
cvr4HUACPxqEo81vuGE9eaFXpFUwUzELMAkGA1UEBhMCVVMxFjAUBgNVBAgTDU1h
c3NhY2h1c2V0dHMxDzANBgNVBAcTBkJvc3RvbjEPMA0GA1UEChMGVGVzdENBMQow
CAYDVQQKEwEgggkA0e05Ln0nM7AwDQYJKoZIhvcNAQEEBQADgYEAJPyQOatqRneu
fBG5ra1Fo5vjJB7Q/hhfwgdJxf3jEVqn8p3EB9tAIeuPTH2GcNVFkNrwRJfD4PS9
Lz96uaWSktF7BA71tgfOx6TnbgwXtzfHp0g2w6KeQcDZ3SpeTNGiG/40TE+jTZG5
qvdPj9RFng+FxnBWvSl0UAUpFigOZbg=
-----END CERTIFICATE-----
