Certificate:
    Data:
        Version: 3 (0x2)
        Serial Number: 1 (0x1)
        Signature Algorithm: md5WithRSAEncryption
        Issuer: C=US, ST=Massachusetts, L=Boston, O=YaluAndMike, O=Org, CN=yaluandmike.com
        Validity
            Not Before: Jan 24 03:28:03 2012 GMT
            Not After : Jan 23 03:28:03 2013 GMT
        Subject: C=US, ST=Massachusetts, L=Boston, O=YaluAndMike, O=Org, CN=default
        Subject Public Key Info:
            Public Key Algorithm: rsaEncryption
            RSA Public Key: (1024 bit)
                Modulus (1024 bit):
                    00:dd:0f:56:f5:ba:7d:32:af:c8:b9:08:c6:13:65:
                    21:b0:03:de:6d:03:31:a5:1e:0e:04:8e:ea:c0:68:
                    98:fb:0c:69:56:36:1f:cb:a6:87:7b:9f:ff:92:f2:
                    99:ee:0a:1f:fa:53:21:d1:b8:c8:8b:de:96:da:42:
                    f4:fc:ef:77:51:ee:5b:2c:ca:d1:36:ac:e2:1f:b3:
                    d8:0f:01:e4:88:92:a3:65:78:36:1e:7a:93:b6:ff:
                    0f:28:6d:10:97:c7:cf:ba:26:93:e4:1c:b8:96:ce:
                    03:ee:24:f5:f7:bb:2b:d3:d5:d8:29:02:7d:06:12:
                    ae:b4:49:2a:33:a8:2d:32:17
                Exponent: 65537 (0x10001)
        X509v3 extensions:
            X509v3 Basic Constraints: 
                CA:FALSE
            Netscape Comment: 
                OpenSSL Generated Certificate
            X509v3 Subject Key Identifier: 
                37:C8:79:3D:00:05:82:F3:22:F4:F3:89:BF:C8:BE:EB:0B:30:A5:20
            X509v3 Authority Key Identifier: 
                keyid:B2:92:8D:D7:7D:B7:E7:6E:AE:10:4E:46:8D:FA:E0:0D:84:78:09:B7
                DirName:/C=US/ST=Massachusetts/L=Boston/O=YaluAndMike/O=Org/CN=yaluandmike.com
                serial:AB:E5:E8:45:9A:87:73:A5

    Signature Algorithm: md5WithRSAEncryption
        38:5e:7b:5b:f3:3c:fe:0e:42:9c:36:fc:84:c8:96:13:96:6a:
        d5:92:71:cf:23:45:8a:ed:b5:ea:9c:b1:e3:e1:9e:4d:67:15:
        47:b9:31:d8:f1:a4:3c:87:94:09:e1:0b:1e:b1:d4:e2:d3:47:
        59:52:9a:05:e5:db:31:ae:9b:f2:55:34:76:a8:7e:85:30:7d:
        6c:9f:93:42:9d:59:29:58:f2:59:81:8b:ab:df:34:61:6e:af:
        7c:7f:f8:36:10:65:45:bb:8e:0c:15:0c:4e:29:da:c1:ee:29:
        bc:62:74:69:04:cd:16:38:9c:04:20:69:7f:24:14:d6:50:4e:
        4d:69
-----BEGIN CERTIFICATE-----
MIIDXTCCAsagAwIBAgIBATANBgkqhkiG9w0BAQQFADB0MQswCQYDVQQGEwJVUzEW
MBQGA1UECBMNTWFzc2FjaHVzZXR0czEPMA0GA1UEBxMGQm9zdG9uMRQwEgYDVQQK
EwtZYWx1QW5kTWlrZTEMMAoGA1UEChMDT3JnMRgwFgYDVQQDEw95YWx1YW5kbWlr
ZS5jb20wHhcNMTIwMTI0MDMyODAzWhcNMTMwMTIzMDMyODAzWjBsMQswCQYDVQQG
EwJVUzEWMBQGA1UECBMNTWFzc2FjaHVzZXR0czEPMA0GA1UEBxMGQm9zdG9uMRQw
EgYDVQQKEwtZYWx1QW5kTWlrZTEMMAoGA1UEChMDT3JnMRAwDgYDVQQDEwdkZWZh
dWx0MIGfMA0GCSqGSIb3DQEBAQUAA4GNADCBiQKBgQDdD1b1un0yr8i5CMYTZSGw
A95tAzGlHg4EjurAaJj7DGlWNh/Lpod7n/+S8pnuCh/6UyHRuMiL3pbaQvT873dR
7lssytE2rOIfs9gPAeSIkqNleDYeepO2/w8obRCXx8+6JpPkHLiWzgPuJPX3uyvT
1dgpAn0GEq60SSozqC0yFwIDAQABo4IBBTCCAQEwCQYDVR0TBAIwADAsBglghkgB
hvhCAQ0EHxYdT3BlblNTTCBHZW5lcmF0ZWQgQ2VydGlmaWNhdGUwHQYDVR0OBBYE
FDfIeT0ABYLzIvTzib/IvusLMKUgMIGmBgNVHSMEgZ4wgZuAFLKSjdd9t+durhBO
Ro364A2EeAm3oXikdjB0MQswCQYDVQQGEwJVUzEWMBQGA1UECBMNTWFzc2FjaHVz
ZXR0czEPMA0GA1UEBxMGQm9zdG9uMRQwEgYDVQQKEwtZYWx1QW5kTWlrZTEMMAoG
A1UEChMDT3JnMRgwFgYDVQQDEw95YWx1YW5kbWlrZS5jb22CCQCr5ehFmodzpTAN
BgkqhkiG9w0BAQQFAAOBgQA4Xntb8zz+DkKcNvyEyJYTlmrVknHPI0WK7bXqnLHj
4Z5NZxVHuTHY8aQ8h5QJ4QsesdTi00dZUpoF5dsxrpvyVTR2qH6FMH1sn5NCnVkp
WPJZgYur3zRhbq98f/g2EGVFu44MFQxOKdrB7im8YnRpBM0WOJwEIGl/JBTWUE5N
aQ==
-----END CERTIFICATE-----
