Certificate:
    Data:
        Version: 3 (0x2)
        Serial Number: 2 (0x2)
        Signature Algorithm: md5WithRSAEncryption
        Issuer: C=US, ST=Massachusetts, L=Boston, O=YaluAndMike, O=Org, CN=yaluandmike.com
        Validity
            Not Before: Jan 24 03:29:26 2012 GMT
            Not After : Jan 23 03:29:26 2013 GMT
        Subject: C=US, ST=Massachusetts, L=Boston, O=YaluAndMike, O=Org, CN=www.facebook.com
        Subject Public Key Info:
            Public Key Algorithm: rsaEncryption
            RSA Public Key: (1024 bit)
                Modulus (1024 bit):
                    00:e4:63:a3:b3:e5:29:da:58:9b:b8:31:5a:21:f7:
                    88:59:24:9b:ae:7a:86:9c:72:e3:a8:a5:39:e5:ba:
                    44:88:0d:ac:b0:98:48:14:23:0f:28:17:5d:ab:4a:
                    99:4d:c6:48:53:13:84:4a:f6:e6:8b:98:8d:29:67:
                    ec:3d:55:3d:f7:9d:0a:8a:6b:be:44:f6:cc:a1:d4:
                    d7:8d:16:4a:08:a2:a5:70:f7:8f:b6:75:9b:aa:b5:
                    8b:4b:4d:3b:de:91:55:04:6f:f9:2d:44:a1:90:85:
                    c0:e2:24:86:8d:1e:1f:29:6d:68:97:de:af:e8:31:
                    5e:c4:2b:7b:97:ae:44:f3:97
                Exponent: 65537 (0x10001)
        X509v3 extensions:
            X509v3 Basic Constraints: 
                CA:FALSE
            Netscape Comment: 
                OpenSSL Generated Certificate
            X509v3 Subject Key Identifier: 
                35:39:4D:CA:4B:C9:25:8B:87:B5:96:91:82:9F:FE:EE:F5:77:95:13
            X509v3 Authority Key Identifier: 
                keyid:B2:92:8D:D7:7D:B7:E7:6E:AE:10:4E:46:8D:FA:E0:0D:84:78:09:B7
                DirName:/C=US/ST=Massachusetts/L=Boston/O=YaluAndMike/O=Org/CN=yaluandmike.com
                serial:AB:E5:E8:45:9A:87:73:A5

    Signature Algorithm: md5WithRSAEncryption
        57:07:13:bd:65:f0:b8:2b:f8:68:14:fc:6a:a2:e8:25:63:eb:
        d9:82:b5:36:4c:e5:e9:bb:81:c0:8a:9b:18:b6:f7:43:a4:30:
        66:fd:1f:c6:3d:9d:15:7b:50:ee:f1:dd:30:79:bc:81:a1:dc:
        fb:bb:a5:02:32:56:d3:f3:92:10:fe:0e:fc:05:a7:54:fc:f0:
        fb:c5:cc:bb:f3:29:6b:31:6a:78:b6:df:fb:ed:4b:e3:1e:be:
        ee:cd:9c:e9:6a:8e:50:aa:61:02:02:4b:7c:b3:cf:4c:07:8c:
        a5:25:d9:06:02:57:d9:7e:7e:56:75:19:59:17:a3:24:f0:58:
        04:64
-----BEGIN CERTIFICATE-----
MIIDZjCCAs+gAwIBAgIBAjANBgkqhkiG9w0BAQQFADB0MQswCQYDVQQGEwJVUzEW
MBQGA1UECBMNTWFzc2FjaHVzZXR0czEPMA0GA1UEBxMGQm9zdG9uMRQwEgYDVQQK
EwtZYWx1QW5kTWlrZTEMMAoGA1UEChMDT3JnMRgwFgYDVQQDEw95YWx1YW5kbWlr
ZS5jb20wHhcNMTIwMTI0MDMyOTI2WhcNMTMwMTIzMDMyOTI2WjB1MQswCQYDVQQG
EwJVUzEWMBQGA1UECBMNTWFzc2FjaHVzZXR0czEPMA0GA1UEBxMGQm9zdG9uMRQw
EgYDVQQKEwtZYWx1QW5kTWlrZTEMMAoGA1UEChMDT3JnMRkwFwYDVQQDExB3d3cu
ZmFjZWJvb2suY29tMIGfMA0GCSqGSIb3DQEBAQUAA4GNADCBiQKBgQDkY6Oz5Sna
WJu4MVoh94hZJJuueoaccuOopTnlukSIDaywmEgUIw8oF12rSplNxkhTE4RK9uaL
mI0pZ+w9VT33nQqKa75E9syh1NeNFkoIoqVw94+2dZuqtYtLTTvekVUEb/ktRKGQ
hcDiJIaNHh8pbWiX3q/oMV7EK3uXrkTzlwIDAQABo4IBBTCCAQEwCQYDVR0TBAIw
ADAsBglghkgBhvhCAQ0EHxYdT3BlblNTTCBHZW5lcmF0ZWQgQ2VydGlmaWNhdGUw
HQYDVR0OBBYEFDU5TcpLySWLh7WWkYKf/u71d5UTMIGmBgNVHSMEgZ4wgZuAFLKS
jdd9t+durhBORo364A2EeAm3oXikdjB0MQswCQYDVQQGEwJVUzEWMBQGA1UECBMN
TWFzc2FjaHVzZXR0czEPMA0GA1UEBxMGQm9zdG9uMRQwEgYDVQQKEwtZYWx1QW5k
TWlrZTEMMAoGA1UEChMDT3JnMRgwFgYDVQQDEw95YWx1YW5kbWlrZS5jb22CCQCr
5ehFmodzpTANBgkqhkiG9w0BAQQFAAOBgQBXBxO9ZfC4K/hoFPxqouglY+vZgrU2
TOXpu4HAipsYtvdDpDBm/R/GPZ0Ve1Du8d0webyBodz7u6UCMlbT85IQ/g78BadU
/PD7xcy78ylrMWp4tt/77UvjHr7uzZzpao5QqmECAkt8s89MB4ylJdkGAlfZfn5W
dRlZF6Mk8FgEZA==
-----END CERTIFICATE-----
