Certificate:
    Data:
        Version: 3 (0x2)
        Serial Number: 3 (0x3)
        Signature Algorithm: md5WithRSAEncryption
        Issuer: C=US, ST=Massachusetts, L=Boston, O=YaluAndMike, O=Org, CN=yaluandmike.com
        Validity
            Not Before: Jan 24 03:29:45 2012 GMT
            Not After : Jan 23 03:29:45 2013 GMT
        Subject: C=US, ST=Massachusetts, L=Boston, O=YaluAndMike, O=Org, CN=mail.google.com
        Subject Public Key Info:
            Public Key Algorithm: rsaEncryption
            RSA Public Key: (1024 bit)
                Modulus (1024 bit):
                    00:bb:54:bc:b9:6c:e9:56:06:00:88:6f:c2:06:3f:
                    36:fb:b7:28:26:0c:5f:a9:db:5c:5a:52:8b:44:19:
                    7c:53:2a:af:d0:7a:0b:f2:eb:14:f8:1e:1a:15:6d:
                    cb:e8:cf:54:c4:8b:6d:d4:a0:c9:1b:76:15:9c:7f:
                    0e:da:35:be:f9:82:22:ef:dd:32:ce:98:c7:31:ee:
                    ae:20:65:36:d9:20:75:b2:9f:ca:1c:7d:0c:19:87:
                    84:53:6d:1d:e3:45:9f:0f:3f:a9:cd:f9:c7:a1:6a:
                    99:f8:10:41:c4:92:54:ff:c8:b2:d0:fb:cd:28:f2:
                    6b:bf:42:da:69:7f:8e:9b:9f
                Exponent: 65537 (0x10001)
        X509v3 extensions:
            X509v3 Basic Constraints: 
                CA:FALSE
            Netscape Comment: 
                OpenSSL Generated Certificate
            X509v3 Subject Key Identifier: 
                5B:CE:C2:3D:C9:7D:5F:92:23:D1:BC:DE:F2:78:F6:E6:0B:CE:6A:7F
            X509v3 Authority Key Identifier: 
                keyid:B2:92:8D:D7:7D:B7:E7:6E:AE:10:4E:46:8D:FA:E0:0D:84:78:09:B7
                DirName:/C=US/ST=Massachusetts/L=Boston/O=YaluAndMike/O=Org/CN=yaluandmike.com
                serial:AB:E5:E8:45:9A:87:73:A5

    Signature Algorithm: md5WithRSAEncryption
        5b:72:21:4c:ec:e6:27:9b:fa:56:cd:db:e9:9b:d8:e6:1e:a6:
        a0:e8:3b:03:81:95:c8:64:e8:89:9c:c7:b4:e4:70:91:3f:2b:
        b1:e6:97:8a:1d:27:f0:79:aa:9a:7a:99:85:88:32:32:70:89:
        56:59:a3:1e:57:2e:a5:ff:f4:44:e1:82:7d:1f:a8:4c:22:c7:
        a2:66:9a:87:b5:a9:95:4d:6b:4f:2d:e1:1e:24:44:0e:f5:bf:
        88:c7:8a:8c:48:b5:9e:81:6d:df:41:91:3a:03:b4:06:1a:7e:
        3d:3d:e8:d2:3a:4d:9f:d4:85:0c:24:07:72:ee:8a:ed:65:7d:
        e3:0f
-----BEGIN CERTIFICATE-----
MIIDZTCCAs6gAwIBAgIBAzANBgkqhkiG9w0BAQQFADB0MQswCQYDVQQGEwJVUzEW
MBQGA1UECBMNTWFzc2FjaHVzZXR0czEPMA0GA1UEBxMGQm9zdG9uMRQwEgYDVQQK
EwtZYWx1QW5kTWlrZTEMMAoGA1UEChMDT3JnMRgwFgYDVQQDEw95YWx1YW5kbWlr
ZS5jb20wHhcNMTIwMTI0MDMyOTQ1WhcNMTMwMTIzMDMyOTQ1WjB0MQswCQYDVQQG
EwJVUzEWMBQGA1UECBMNTWFzc2FjaHVzZXR0czEPMA0GA1UEBxMGQm9zdG9uMRQw
EgYDVQQKEwtZYWx1QW5kTWlrZTEMMAoGA1UEChMDT3JnMRgwFgYDVQQDEw9tYWls
Lmdvb2dsZS5jb20wgZ8wDQYJKoZIhvcNAQEBBQADgY0AMIGJAoGBALtUvLls6VYG
AIhvwgY/Nvu3KCYMX6nbXFpSi0QZfFMqr9B6C/LrFPgeGhVty+jPVMSLbdSgyRt2
FZx/Dto1vvmCIu/dMs6YxzHuriBlNtkgdbKfyhx9DBmHhFNtHeNFnw8/qc35x6Fq
mfgQQcSSVP/IstD7zSjya79C2ml/jpufAgMBAAGjggEFMIIBATAJBgNVHRMEAjAA
MCwGCWCGSAGG+EIBDQQfFh1PcGVuU1NMIEdlbmVyYXRlZCBDZXJ0aWZpY2F0ZTAd
BgNVHQ4EFgQUW87CPcl9X5Ij0bze8nj25gvOan8wgaYGA1UdIwSBnjCBm4AUspKN
1323526uEE5GjfrgDYR4CbeheKR2MHQxCzAJBgNVBAYTAlVTMRYwFAYDVQQIEw1N
YXNzYWNodXNldHRzMQ8wDQYDVQQHEwZCb3N0b24xFDASBgNVBAoTC1lhbHVBbmRN
aWtlMQwwCgYDVQQKEwNPcmcxGDAWBgNVBAMTD3lhbHVhbmRtaWtlLmNvbYIJAKvl
6EWah3OlMA0GCSqGSIb3DQEBBAUAA4GBAFtyIUzs5ieb+lbN2+mb2OYepqDoOwOB
lchk6Imcx7TkcJE/K7Hml4odJ/B5qpp6mYWIMjJwiVZZox5XLqX/9EThgn0fqEwi
x6Jmmoe1qZVNa08t4R4kRA71v4jHioxItZ6Bbd9BkToDtAYafj096NI6TZ/UhQwk
B3Luiu1lfeMP
-----END CERTIFICATE-----
