Certificate:
    Data:
        Version: 3 (0x2)
        Serial Number: 8 (0x8)
        Signature Algorithm: md5WithRSAEncryption
        Issuer: C=US, ST=Massachusetts, L=Boston, O=YaluAndMike, O=Org, CN=yaluandmike.com
        Validity
            Not Before: Jan 24 17:11:42 2012 GMT
            Not After : Jan 23 17:11:42 2013 GMT
        Subject: C=US, ST=Massachusetts, L=Boston, O=YaluAndMike, O=Org, CN=*.ak.facebook.com
        Subject Public Key Info:
            Public Key Algorithm: rsaEncryption
            RSA Public Key: (1024 bit)
                Modulus (1024 bit):
                    00:e6:a0:b0:71:45:69:8d:1f:95:1e:65:51:24:90:
                    38:d0:bf:4f:9f:a6:54:95:93:98:6f:55:90:dc:df:
                    1d:c5:07:ab:7f:bd:fc:91:44:19:63:f1:9e:d4:a9:
                    9d:f0:ed:ae:78:8d:a6:5d:54:7a:4a:e5:5c:1d:2e:
                    fc:c0:7c:ea:fa:83:9d:85:44:a6:03:68:08:34:b0:
                    2f:0d:27:9b:2c:95:d8:fc:e2:16:7a:e8:6e:d9:c2:
                    70:ae:1b:be:83:5d:76:76:9e:e8:c6:92:ab:29:cc:
                    76:50:8e:cb:60:aa:40:ec:30:8a:db:41:16:2f:fd:
                    5e:2d:7f:dd:f0:0c:3c:9a:51
                Exponent: 65537 (0x10001)
        X509v3 extensions:
            X509v3 Basic Constraints: 
                CA:FALSE
            Netscape Comment: 
                OpenSSL Generated Certificate
            X509v3 Subject Key Identifier: 
                C8:46:CC:EF:C0:AD:20:1B:F2:14:64:B3:42:00:1C:85:5D:F4:53:C3
            X509v3 Authority Key Identifier: 
                keyid:FC:90:77:9B:7A:51:29:78:A7:23:23:83:77:65:3A:0E:E9:EC:2F:66
                DirName:/C=US/ST=Massachusetts/L=Boston/O=YaluAndMike/O=Org/CN=yaluandmike.com
                serial:C8:86:E0:8B:8B:8A:12:71

    Signature Algorithm: md5WithRSAEncryption
        84:b3:4c:2e:4f:5a:19:0b:90:5c:a5:66:0e:97:39:9b:7d:be:
        29:27:d6:56:39:75:17:19:ab:7d:bc:82:b2:a9:82:95:d2:c2:
        a2:8d:6d:60:21:79:68:e1:f3:e9:e3:ec:8f:21:21:34:df:dc:
        87:1b:7f:31:dd:62:da:fb:be:bb:8b:2d:28:1c:cf:e2:45:4a:
        77:ba:fb:4e:6d:5e:10:16:61:4e:89:3a:d7:1c:88:eb:a6:94:
        d6:41:d7:1b:5a:f4:a9:b6:2c:f7:5f:a1:98:41:6d:ac:ac:dc:
        d4:95:39:18:5f:64:4a:f7:6b:96:e6:87:c7:7b:34:6c:be:e7:
        46:26
-----BEGIN CERTIFICATE-----
MIIDZzCCAtCgAwIBAgIBCDANBgkqhkiG9w0BAQQFADB0MQswCQYDVQQGEwJVUzEW
MBQGA1UECBMNTWFzc2FjaHVzZXR0czEPMA0GA1UEBxMGQm9zdG9uMRQwEgYDVQQK
EwtZYWx1QW5kTWlrZTEMMAoGA1UEChMDT3JnMRgwFgYDVQQDEw95YWx1YW5kbWlr
ZS5jb20wHhcNMTIwMTI0MTcxMTQyWhcNMTMwMTIzMTcxMTQyWjB2MQswCQYDVQQG
EwJVUzEWMBQGA1UECBMNTWFzc2FjaHVzZXR0czEPMA0GA1UEBxMGQm9zdG9uMRQw
EgYDVQQKEwtZYWx1QW5kTWlrZTEMMAoGA1UEChMDT3JnMRowGAYDVQQDFBEqLmFr
LmZhY2Vib29rLmNvbTCBnzANBgkqhkiG9w0BAQEFAAOBjQAwgYkCgYEA5qCwcUVp
jR+VHmVRJJA40L9Pn6ZUlZOYb1WQ3N8dxQerf738kUQZY/Ge1Kmd8O2ueI2mXVR6
SuVcHS78wHzq+oOdhUSmA2gINLAvDSebLJXY/OIWeuhu2cJwrhu+g112dp7oxpKr
Kcx2UI7LYKpA7DCK20EWL/1eLX/d8Aw8mlECAwEAAaOCAQUwggEBMAkGA1UdEwQC
MAAwLAYJYIZIAYb4QgENBB8WHU9wZW5TU0wgR2VuZXJhdGVkIENlcnRpZmljYXRl
MB0GA1UdDgQWBBTIRszvwK0gG/IUZLNCAByFXfRTwzCBpgYDVR0jBIGeMIGbgBT8
kHebelEpeKcjI4N3ZToO6ewvZqF4pHYwdDELMAkGA1UEBhMCVVMxFjAUBgNVBAgT
DU1hc3NhY2h1c2V0dHMxDzANBgNVBAcTBkJvc3RvbjEUMBIGA1UEChMLWWFsdUFu
ZE1pa2UxDDAKBgNVBAoTA09yZzEYMBYGA1UEAxMPeWFsdWFuZG1pa2UuY29tggkA
yIbgi4uKEnEwDQYJKoZIhvcNAQEEBQADgYEAhLNMLk9aGQuQXKVmDpc5m32+KSfW
Vjl1FxmrfbyCsqmCldLCoo1tYCF5aOHz6ePsjyEhNN/chxt/Md1i2vu+u4stKBzP
4kVKd7r7Tm1eEBZhTok61xyI66aU1kHXG1r0qbYs91+hmEFtrKzc1JU5GF9kSvdr
luaHx3s0bL7nRiY=
-----END CERTIFICATE-----
