Certificate:
    Data:
        Version: 3 (0x2)
        Serial Number: 9 (0x9)
        Signature Algorithm: md5WithRSAEncryption
        Issuer: C=US, ST=Massachusetts, L=Boston, O=YaluAndMike, O=Org, CN=yaluandmike.com
        Validity
            Not Before: Feb  4 20:04:17 2012 GMT
            Not After : Feb  3 20:04:17 2013 GMT
        Subject: C=US, ST=Massachusetts, L=Boston, O=YaluAndMike, O=Org, CN=*.com
        Subject Public Key Info:
            Public Key Algorithm: rsaEncryption
            RSA Public Key: (1024 bit)
                Modulus (1024 bit):
                    00:c4:eb:74:01:92:74:68:08:33:5b:06:f9:16:2e:
                    cc:e8:6e:f8:c1:db:e0:3f:c0:f4:0d:2c:73:7b:52:
                    70:4d:58:40:17:26:0a:63:8f:b0:67:4b:22:a3:6f:
                    8b:57:de:75:03:36:ec:b2:ff:41:b5:ed:0e:03:79:
                    fc:7b:a0:5f:4f:b0:5d:d9:ae:6f:60:ab:08:54:fe:
                    7c:4b:b4:18:42:ab:49:b5:d1:27:bb:4a:be:69:c1:
                    df:98:ef:8c:01:36:d5:c2:8c:e4:61:b4:9b:c5:d6:
                    e4:32:2f:a1:b0:52:a4:2c:0d:6b:4e:07:d5:17:7e:
                    40:d4:62:ae:db:64:72:b9:7f
                Exponent: 65537 (0x10001)
        X509v3 extensions:
            X509v3 Basic Constraints: 
                CA:FALSE
            Netscape Comment: 
                OpenSSL Generated Certificate
            X509v3 Subject Key Identifier: 
                28:F9:BE:B0:B3:15:FD:4F:89:EC:C6:7C:50:CB:61:37:82:DF:14:E0
            X509v3 Authority Key Identifier: 
                keyid:FC:90:77:9B:7A:51:29:78:A7:23:23:83:77:65:3A:0E:E9:EC:2F:66
                DirName:/C=US/ST=Massachusetts/L=Boston/O=YaluAndMike/O=Org/CN=yaluandmike.com
                serial:C8:86:E0:8B:8B:8A:12:71

    Signature Algorithm: md5WithRSAEncryption
        03:3a:46:6c:e2:09:3d:73:d4:f7:c0:30:a4:31:07:4e:1a:ab:
        c1:1b:e1:0f:94:5e:19:1e:cf:14:f1:32:6c:80:e6:96:9c:fe:
        f5:21:29:ab:8b:2b:e1:87:5b:1e:86:df:37:94:75:80:b5:c7:
        af:4a:0b:4a:98:b0:6a:da:40:89:0d:08:29:85:77:68:db:7c:
        9b:db:97:52:98:29:d4:fa:95:46:29:1c:6d:10:6a:5a:74:1a:
        0f:21:84:7f:ff:58:a8:64:8f:dd:a4:dd:a5:37:27:3c:b5:1e:
        9b:a6:c9:6c:5d:3c:7e:42:5c:29:cb:65:55:4f:9c:5f:80:43:
        c0:41
-----BEGIN CERTIFICATE-----
MIIDWzCCAsSgAwIBAgIBCTANBgkqhkiG9w0BAQQFADB0MQswCQYDVQQGEwJVUzEW
MBQGA1UECBMNTWFzc2FjaHVzZXR0czEPMA0GA1UEBxMGQm9zdG9uMRQwEgYDVQQK
EwtZYWx1QW5kTWlrZTEMMAoGA1UEChMDT3JnMRgwFgYDVQQDEw95YWx1YW5kbWlr
ZS5jb20wHhcNMTIwMjA0MjAwNDE3WhcNMTMwMjAzMjAwNDE3WjBqMQswCQYDVQQG
EwJVUzEWMBQGA1UECBMNTWFzc2FjaHVzZXR0czEPMA0GA1UEBxMGQm9zdG9uMRQw
EgYDVQQKEwtZYWx1QW5kTWlrZTEMMAoGA1UEChMDT3JnMQ4wDAYDVQQDFAUqLmNv
bTCBnzANBgkqhkiG9w0BAQEFAAOBjQAwgYkCgYEAxOt0AZJ0aAgzWwb5Fi7M6G74
wdvgP8D0DSxze1JwTVhAFyYKY4+wZ0sio2+LV951Azbssv9Bte0OA3n8e6BfT7Bd
2a5vYKsIVP58S7QYQqtJtdEnu0q+acHfmO+MATbVwozkYbSbxdbkMi+hsFKkLA1r
TgfVF35A1GKu22RyuX8CAwEAAaOCAQUwggEBMAkGA1UdEwQCMAAwLAYJYIZIAYb4
QgENBB8WHU9wZW5TU0wgR2VuZXJhdGVkIENlcnRpZmljYXRlMB0GA1UdDgQWBBQo
+b6wsxX9T4nsxnxQy2E3gt8U4DCBpgYDVR0jBIGeMIGbgBT8kHebelEpeKcjI4N3
ZToO6ewvZqF4pHYwdDELMAkGA1UEBhMCVVMxFjAUBgNVBAgTDU1hc3NhY2h1c2V0
dHMxDzANBgNVBAcTBkJvc3RvbjEUMBIGA1UEChMLWWFsdUFuZE1pa2UxDDAKBgNV
BAoTA09yZzEYMBYGA1UEAxMPeWFsdWFuZG1pa2UuY29tggkAyIbgi4uKEnEwDQYJ
KoZIhvcNAQEEBQADgYEAAzpGbOIJPXPU98AwpDEHThqrwRvhD5ReGR7PFPEybIDm
lpz+9SEpq4sr4YdbHobfN5R1gLXHr0oLSpiwatpAiQ0IKYV3aNt8m9uXUpgp1PqV
RikcbRBqWnQaDyGEf/9YqGSP3aTdpTcnPLUem6bJbF08fkJcKctlVU+cX4BDwEE=
-----END CERTIFICATE-----
