Certificate:
    Data:
        Version: 3 (0x2)
        Serial Number: 3 (0x3)
        Signature Algorithm: md5WithRSAEncryption
        Issuer: C=US, ST=Massachusetts, L=Boston, O=YaluAndMike, O=Org, CN=yaluandmike.com
        Validity
            Not Before: Jan 24 16:11:33 2012 GMT
            Not After : Jan 23 16:11:33 2013 GMT
        Subject: C=US, ST=Massachusetts, L=Boston, O=YaluAndMike, O=Org, CN=www.facebook.com
        Subject Public Key Info:
            Public Key Algorithm: rsaEncryption
            RSA Public Key: (1024 bit)
                Modulus (1024 bit):
                    00:e0:58:37:3c:81:b5:9d:64:3d:c0:b8:31:b4:b1:
                    94:c9:23:a9:37:65:3c:a4:c3:c3:e7:e6:ba:6e:da:
                    03:4c:c6:d5:d0:e1:7b:09:05:53:88:2f:25:f3:16:
                    cd:de:34:d5:fc:6a:22:e0:08:55:22:bf:f3:a6:24:
                    46:99:fa:9d:91:bf:1b:33:d9:fa:03:c4:bb:9d:fe:
                    73:51:cb:3e:fe:da:1e:0d:fe:f3:9f:64:c6:d4:5b:
                    5b:c4:19:6e:22:a8:f8:34:22:2a:56:d3:d1:ad:1d:
                    2a:82:e2:de:30:48:9c:d7:6a:bf:fd:dc:36:30:4d:
                    96:ad:32:c9:bb:c3:94:2a:73
                Exponent: 65537 (0x10001)
        X509v3 extensions:
            X509v3 Basic Constraints: 
                CA:FALSE
            Netscape Comment: 
                OpenSSL Generated Certificate
            X509v3 Subject Key Identifier: 
                3E:0D:85:D1:99:8A:0D:04:4C:D0:CF:3B:17:38:7D:A0:39:A0:3E:D9
            X509v3 Authority Key Identifier: 
                keyid:FC:90:77:9B:7A:51:29:78:A7:23:23:83:77:65:3A:0E:E9:EC:2F:66
                DirName:/C=US/ST=Massachusetts/L=Boston/O=YaluAndMike/O=Org/CN=yaluandmike.com
                serial:C8:86:E0:8B:8B:8A:12:71

    Signature Algorithm: md5WithRSAEncryption
        55:43:7d:7a:b2:a7:5e:16:d4:1b:8a:ca:1d:85:6b:38:cd:3c:
        67:57:22:03:80:37:5b:ff:47:16:05:7d:58:67:83:23:0a:a8:
        b8:9b:3a:c5:7f:f6:6b:bf:20:e4:1c:8e:c7:e2:8a:c3:1b:29:
        a1:a8:73:30:be:3d:ca:7f:8e:26:7c:34:2b:dd:27:d7:4b:df:
        ed:78:2d:58:d7:51:7f:59:76:fc:c6:71:3e:88:43:c6:a4:fd:
        9a:bc:61:f4:e9:53:4d:bf:cc:f2:e0:3a:a9:34:f6:ac:69:d1:
        ad:18:50:57:bd:6f:35:56:84:05:84:2c:b6:46:36:0a:48:ed:
        0e:ce
-----BEGIN CERTIFICATE-----
MIIDZjCCAs+gAwIBAgIBAzANBgkqhkiG9w0BAQQFADB0MQswCQYDVQQGEwJVUzEW
MBQGA1UECBMNTWFzc2FjaHVzZXR0czEPMA0GA1UEBxMGQm9zdG9uMRQwEgYDVQQK
EwtZYWx1QW5kTWlrZTEMMAoGA1UEChMDT3JnMRgwFgYDVQQDEw95YWx1YW5kbWlr
ZS5jb20wHhcNMTIwMTI0MTYxMTMzWhcNMTMwMTIzMTYxMTMzWjB1MQswCQYDVQQG
EwJVUzEWMBQGA1UECBMNTWFzc2FjaHVzZXR0czEPMA0GA1UEBxMGQm9zdG9uMRQw
EgYDVQQKEwtZYWx1QW5kTWlrZTEMMAoGA1UEChMDT3JnMRkwFwYDVQQDExB3d3cu
ZmFjZWJvb2suY29tMIGfMA0GCSqGSIb3DQEBAQUAA4GNADCBiQKBgQDgWDc8gbWd
ZD3AuDG0sZTJI6k3ZTykw8Pn5rpu2gNMxtXQ4XsJBVOILyXzFs3eNNX8aiLgCFUi
v/OmJEaZ+p2Rvxsz2foDxLud/nNRyz7+2h4N/vOfZMbUW1vEGW4iqPg0IipW09Gt
HSqC4t4wSJzXar/93DYwTZatMsm7w5QqcwIDAQABo4IBBTCCAQEwCQYDVR0TBAIw
ADAsBglghkgBhvhCAQ0EHxYdT3BlblNTTCBHZW5lcmF0ZWQgQ2VydGlmaWNhdGUw
HQYDVR0OBBYEFD4NhdGZig0ETNDPOxc4faA5oD7ZMIGmBgNVHSMEgZ4wgZuAFPyQ
d5t6USl4pyMjg3dlOg7p7C9moXikdjB0MQswCQYDVQQGEwJVUzEWMBQGA1UECBMN
TWFzc2FjaHVzZXR0czEPMA0GA1UEBxMGQm9zdG9uMRQwEgYDVQQKEwtZYWx1QW5k
TWlrZTEMMAoGA1UEChMDT3JnMRgwFgYDVQQDEw95YWx1YW5kbWlrZS5jb22CCQDI
huCLi4oScTANBgkqhkiG9w0BAQQFAAOBgQBVQ316sqdeFtQbisodhWs4zTxnVyID
gDdb/0cWBX1YZ4MjCqi4mzrFf/ZrvyDkHI7H4orDGymhqHMwvj3Kf44mfDQr3SfX
S9/teC1Y11F/WXb8xnE+iEPGpP2avGH06VNNv8zy4DqpNPasadGtGFBXvW81VoQF
hCy2RjYKSO0Ozg==
-----END CERTIFICATE-----
