Certificate:
    Data:
        Version: 3 (0x2)
        Serial Number: 4 (0x4)
        Signature Algorithm: md5WithRSAEncryption
        Issuer: C=US, ST=Massachusetts, L=Boston, O=YaluAndMike, O=Org, CN=yaluandmike.com
        Validity
            Not Before: Jan 24 16:37:40 2012 GMT
            Not After : Jan 23 16:37:40 2013 GMT
        Subject: C=US, ST=Massachusetts, L=Boston, O=YaluAndMike, O=Org, CN=*.yaluandmike.com
        Subject Public Key Info:
            Public Key Algorithm: rsaEncryption
            RSA Public Key: (1024 bit)
                Modulus (1024 bit):
                    00:bb:da:e2:f8:6a:f3:8b:c0:17:cb:55:d5:91:d5:
                    29:1e:98:67:e4:fa:a8:e9:af:b4:b5:f1:00:5d:2c:
                    d9:b0:e5:94:ef:3e:91:47:58:b2:fa:35:5c:69:c4:
                    c3:3e:38:2a:80:c7:cb:69:3e:97:11:a6:ef:c6:cd:
                    5b:a2:da:99:b9:c2:18:2a:63:5e:c1:1a:bf:f2:13:
                    d4:9c:e9:f7:9c:65:76:7f:c4:48:86:47:af:76:79:
                    36:2b:a6:ac:0a:19:e6:80:3d:59:d3:fd:7f:a4:1a:
                    0b:6a:cf:88:a2:fb:ce:b4:7c:da:0f:ed:64:e6:d6:
                    1d:ca:02:d0:9d:0a:09:fc:77
                Exponent: 65537 (0x10001)
        X509v3 extensions:
            X509v3 Basic Constraints: 
                CA:FALSE
            Netscape Comment: 
                OpenSSL Generated Certificate
            X509v3 Subject Key Identifier: 
                9E:95:CB:09:89:8E:77:AE:58:1F:C6:CE:B8:88:BA:FA:4F:8D:E2:23
            X509v3 Authority Key Identifier: 
                keyid:FC:90:77:9B:7A:51:29:78:A7:23:23:83:77:65:3A:0E:E9:EC:2F:66
                DirName:/C=US/ST=Massachusetts/L=Boston/O=YaluAndMike/O=Org/CN=yaluandmike.com
                serial:C8:86:E0:8B:8B:8A:12:71

    Signature Algorithm: md5WithRSAEncryption
        12:66:6c:f7:fd:71:65:b2:89:3a:ba:9d:38:11:6d:e2:22:61:
        52:20:fa:d9:2b:f0:fe:bd:83:45:e9:3a:94:82:e9:66:4e:5f:
        98:16:4f:18:d6:8c:18:ad:90:72:f4:24:43:c3:09:eb:b6:c1:
        e9:d2:3c:d5:ee:31:60:99:ba:2b:ed:5b:4e:21:8f:8a:9f:73:
        9e:32:9b:b9:f2:cc:29:01:50:f8:d1:c9:5f:e7:af:eb:d0:bf:
        fb:b4:5c:71:9b:54:9f:4c:5a:f2:37:e8:0c:bc:0b:86:db:ee:
        4e:69:d1:2b:6d:35:f8:69:90:c9:29:3c:ca:6a:72:6e:16:8a:
        6b:64
-----BEGIN CERTIFICATE-----
MIIDZzCCAtCgAwIBAgIBBDANBgkqhkiG9w0BAQQFADB0MQswCQYDVQQGEwJVUzEW
MBQGA1UECBMNTWFzc2FjaHVzZXR0czEPMA0GA1UEBxMGQm9zdG9uMRQwEgYDVQQK
EwtZYWx1QW5kTWlrZTEMMAoGA1UEChMDT3JnMRgwFgYDVQQDEw95YWx1YW5kbWlr
ZS5jb20wHhcNMTIwMTI0MTYzNzQwWhcNMTMwMTIzMTYzNzQwWjB2MQswCQYDVQQG
EwJVUzEWMBQGA1UECBMNTWFzc2FjaHVzZXR0czEPMA0GA1UEBxMGQm9zdG9uMRQw
EgYDVQQKEwtZYWx1QW5kTWlrZTEMMAoGA1UEChMDT3JnMRowGAYDVQQDFBEqLnlh
bHVhbmRtaWtlLmNvbTCBnzANBgkqhkiG9w0BAQEFAAOBjQAwgYkCgYEAu9ri+Grz
i8AXy1XVkdUpHphn5Pqo6a+0tfEAXSzZsOWU7z6RR1iy+jVcacTDPjgqgMfLaT6X
Eabvxs1botqZucIYKmNewRq/8hPUnOn3nGV2f8RIhkevdnk2K6asChnmgD1Z0/1/
pBoLas+IovvOtHzaD+1k5tYdygLQnQoJ/HcCAwEAAaOCAQUwggEBMAkGA1UdEwQC
MAAwLAYJYIZIAYb4QgENBB8WHU9wZW5TU0wgR2VuZXJhdGVkIENlcnRpZmljYXRl
MB0GA1UdDgQWBBSelcsJiY53rlgfxs64iLr6T43iIzCBpgYDVR0jBIGeMIGbgBT8
kHebelEpeKcjI4N3ZToO6ewvZqF4pHYwdDELMAkGA1UEBhMCVVMxFjAUBgNVBAgT
DU1hc3NhY2h1c2V0dHMxDzANBgNVBAcTBkJvc3RvbjEUMBIGA1UEChMLWWFsdUFu
ZE1pa2UxDDAKBgNVBAoTA09yZzEYMBYGA1UEAxMPeWFsdWFuZG1pa2UuY29tggkA
yIbgi4uKEnEwDQYJKoZIhvcNAQEEBQADgYEAEmZs9/1xZbKJOrqdOBFt4iJhUiD6
2Svw/r2DRek6lILpZk5fmBZPGNaMGK2QcvQkQ8MJ67bB6dI81e4xYJm6K+1bTiGP
ip9znjKbufLMKQFQ+NHJX+ev69C/+7RccZtUn0xa8jfoDLwLhtvuTmnRK201+GmQ
ySk8ympybhaKa2Q=
-----END CERTIFICATE-----
