Certificate:
    Data:
        Version: 3 (0x2)
        Serial Number: 6 (0x6)
        Signature Algorithm: md5WithRSAEncryption
        Issuer: C=US, ST=Massachusetts, L=Boston, O=YaluAndMike, O=Org, CN=yaluandmike.com
        Validity
            Not Before: Jan 24 16:49:46 2012 GMT
            Not After : Jan 23 16:49:46 2013 GMT
        Subject: C=US, ST=Massachusetts, L=Boston, O=YaluAndMike, O=Org, CN=google.com
        Subject Public Key Info:
            Public Key Algorithm: rsaEncryption
            RSA Public Key: (1024 bit)
                Modulus (1024 bit):
                    00:e4:6b:fa:1b:24:15:ea:1f:37:70:7f:9a:bf:3f:
                    49:1c:ee:df:c3:ba:b6:b8:c4:56:9a:f8:09:a7:fb:
                    a0:63:9b:8c:a4:b5:02:ed:26:f3:eb:cb:aa:69:4e:
                    c7:f2:b1:56:b7:f6:4e:41:fc:aa:ee:9c:37:d4:2e:
                    3b:f0:c4:20:f9:d7:89:36:00:34:68:1c:85:a1:e3:
                    f1:f6:59:48:23:13:f0:73:8c:b7:72:23:f6:c9:07:
                    bf:25:04:98:4e:01:cf:31:d1:df:9b:44:ec:6c:9a:
                    40:62:77:8d:e0:79:35:02:61:5c:51:a2:d9:8c:bf:
                    74:39:d9:66:c7:cd:53:0b:bb
                Exponent: 65537 (0x10001)
        X509v3 extensions:
            X509v3 Basic Constraints: 
                CA:FALSE
            Netscape Comment: 
                OpenSSL Generated Certificate
            X509v3 Subject Key Identifier: 
                B9:8B:1D:16:B1:7A:35:26:C0:60:D9:BC:5A:4C:7B:22:00:8E:CF:86
            X509v3 Authority Key Identifier: 
                keyid:FC:90:77:9B:7A:51:29:78:A7:23:23:83:77:65:3A:0E:E9:EC:2F:66
                DirName:/C=US/ST=Massachusetts/L=Boston/O=YaluAndMike/O=Org/CN=yaluandmike.com
                serial:C8:86:E0:8B:8B:8A:12:71

    Signature Algorithm: md5WithRSAEncryption
        4b:f2:62:75:99:4b:c0:29:08:e6:43:68:98:73:98:e6:72:fc:
        f1:ae:40:30:15:f5:9d:de:0d:37:4e:2a:bf:24:a4:a3:c3:df:
        c4:4e:1a:41:12:ec:15:ef:37:7e:41:2f:77:a1:1f:ec:c8:30:
        9a:a5:a4:7a:55:2b:3e:4a:2a:74:65:df:0b:fa:b7:6e:8a:d1:
        35:b4:27:0c:3a:cc:3d:f0:93:ab:05:66:05:b5:48:ce:d5:77:
        8f:7e:bc:d5:fd:48:59:ad:8b:ef:79:3e:9a:64:7c:c6:37:0c:
        e9:46:9e:be:8a:27:74:9b:d5:51:59:fa:47:80:a5:c4:26:53:
        68:68
-----BEGIN CERTIFICATE-----
MIIDYDCCAsmgAwIBAgIBBjANBgkqhkiG9w0BAQQFADB0MQswCQYDVQQGEwJVUzEW
MBQGA1UECBMNTWFzc2FjaHVzZXR0czEPMA0GA1UEBxMGQm9zdG9uMRQwEgYDVQQK
EwtZYWx1QW5kTWlrZTEMMAoGA1UEChMDT3JnMRgwFgYDVQQDEw95YWx1YW5kbWlr
ZS5jb20wHhcNMTIwMTI0MTY0OTQ2WhcNMTMwMTIzMTY0OTQ2WjBvMQswCQYDVQQG
EwJVUzEWMBQGA1UECBMNTWFzc2FjaHVzZXR0czEPMA0GA1UEBxMGQm9zdG9uMRQw
EgYDVQQKEwtZYWx1QW5kTWlrZTEMMAoGA1UEChMDT3JnMRMwEQYDVQQDEwpnb29n
bGUuY29tMIGfMA0GCSqGSIb3DQEBAQUAA4GNADCBiQKBgQDka/obJBXqHzdwf5q/
P0kc7t/Dura4xFaa+Amn+6Bjm4yktQLtJvPry6ppTsfysVa39k5B/KrunDfULjvw
xCD514k2ADRoHIWh4/H2WUgjE/BzjLdyI/bJB78lBJhOAc8x0d+bROxsmkBid43g
eTUCYVxRotmMv3Q52WbHzVMLuwIDAQABo4IBBTCCAQEwCQYDVR0TBAIwADAsBglg
hkgBhvhCAQ0EHxYdT3BlblNTTCBHZW5lcmF0ZWQgQ2VydGlmaWNhdGUwHQYDVR0O
BBYEFLmLHRaxejUmwGDZvFpMeyIAjs+GMIGmBgNVHSMEgZ4wgZuAFPyQd5t6USl4
pyMjg3dlOg7p7C9moXikdjB0MQswCQYDVQQGEwJVUzEWMBQGA1UECBMNTWFzc2Fj
aHVzZXR0czEPMA0GA1UEBxMGQm9zdG9uMRQwEgYDVQQKEwtZYWx1QW5kTWlrZTEM
MAoGA1UEChMDT3JnMRgwFgYDVQQDEw95YWx1YW5kbWlrZS5jb22CCQDIhuCLi4oS
cTANBgkqhkiG9w0BAQQFAAOBgQBL8mJ1mUvAKQjmQ2iYc5jmcvzxrkAwFfWd3g03
Tiq/JKSjw9/EThpBEuwV7zd+QS93oR/syDCapaR6VSs+Sip0Zd8L+rduitE1tCcM
Osw98JOrBWYFtUjO1XePfrzV/UhZrYvveT6aZHzGNwzpRp6+iid0m9VRWfpHgKXE
JlNoaA==
-----END CERTIFICATE-----
