Certificate:
    Data:
        Version: 3 (0x2)
        Serial Number: 7 (0x7)
        Signature Algorithm: md5WithRSAEncryption
        Issuer: C=US, ST=Massachusetts, L=Boston, O=YaluAndMike, O=Org, CN=yaluandmike.com
        Validity
            Not Before: Jan 24 16:54:03 2012 GMT
            Not After : Jan 23 16:54:03 2013 GMT
        Subject: C=US, ST=Massachusetts, L=Boston, O=YaluAndMike, O=Org, CN=*.facebook.com
        Subject Public Key Info:
            Public Key Algorithm: rsaEncryption
            RSA Public Key: (1024 bit)
                Modulus (1024 bit):
                    00:be:76:fb:e1:65:4e:64:62:6c:c4:67:0f:e3:57:
                    27:da:34:e3:82:ce:4e:52:af:0d:74:32:0d:53:0b:
                    a7:77:b1:4e:1a:99:84:fe:15:d2:2b:cd:cd:7b:95:
                    ab:bc:2d:ce:3a:5a:83:14:7b:6c:66:5b:23:40:ae:
                    16:c4:f8:0d:ad:2e:00:22:fc:b8:79:7b:92:b2:58:
                    a2:e3:28:01:05:b5:79:a4:0b:e6:c2:4d:78:87:de:
                    7e:fe:59:8d:c1:c7:c5:ed:94:f4:8d:14:a7:af:0e:
                    9a:35:8a:47:58:a1:5c:63:d5:bb:22:3f:e9:03:b6:
                    7d:76:17:e4:34:cb:46:bb:73
                Exponent: 65537 (0x10001)
        X509v3 extensions:
            X509v3 Basic Constraints: 
                CA:FALSE
            Netscape Comment: 
                OpenSSL Generated Certificate
            X509v3 Subject Key Identifier: 
                72:DE:C6:72:F4:91:78:AA:A9:01:33:07:C0:0C:8E:D3:1B:15:00:90
            X509v3 Authority Key Identifier: 
                keyid:FC:90:77:9B:7A:51:29:78:A7:23:23:83:77:65:3A:0E:E9:EC:2F:66
                DirName:/C=US/ST=Massachusetts/L=Boston/O=YaluAndMike/O=Org/CN=yaluandmike.com
                serial:C8:86:E0:8B:8B:8A:12:71

    Signature Algorithm: md5WithRSAEncryption
        5d:ed:7a:96:ea:c2:51:37:92:81:4a:8a:3c:bf:98:c0:47:c7:
        3b:a7:bc:4b:dd:14:6a:0d:49:84:91:b8:69:0e:e5:a9:dc:ba:
        8a:95:b4:be:f5:23:f0:b6:0c:21:ed:24:ba:f4:31:6f:58:59:
        85:00:ce:9e:cc:5f:12:42:2c:48:3e:d1:1c:62:64:2d:5e:33:
        4f:39:e6:13:06:06:98:9f:7b:46:3b:e4:5f:ea:0d:33:99:4d:
        ab:03:e1:f6:86:ac:f2:53:67:d6:82:25:33:3d:a6:8e:cb:82:
        06:90:1e:f9:07:74:4f:20:98:22:b0:65:ba:78:07:ca:be:de:
        30:f9
-----BEGIN CERTIFICATE-----
MIIDZDCCAs2gAwIBAgIBBzANBgkqhkiG9w0BAQQFADB0MQswCQYDVQQGEwJVUzEW
MBQGA1UECBMNTWFzc2FjaHVzZXR0czEPMA0GA1UEBxMGQm9zdG9uMRQwEgYDVQQK
EwtZYWx1QW5kTWlrZTEMMAoGA1UEChMDT3JnMRgwFgYDVQQDEw95YWx1YW5kbWlr
ZS5jb20wHhcNMTIwMTI0MTY1NDAzWhcNMTMwMTIzMTY1NDAzWjBzMQswCQYDVQQG
EwJVUzEWMBQGA1UECBMNTWFzc2FjaHVzZXR0czEPMA0GA1UEBxMGQm9zdG9uMRQw
EgYDVQQKEwtZYWx1QW5kTWlrZTEMMAoGA1UEChMDT3JnMRcwFQYDVQQDFA4qLmZh
Y2Vib29rLmNvbTCBnzANBgkqhkiG9w0BAQEFAAOBjQAwgYkCgYEAvnb74WVOZGJs
xGcP41cn2jTjgs5OUq8NdDINUwund7FOGpmE/hXSK83Ne5WrvC3OOlqDFHtsZlsj
QK4WxPgNrS4AIvy4eXuSslii4ygBBbV5pAvmwk14h95+/lmNwcfF7ZT0jRSnrw6a
NYpHWKFcY9W7Ij/pA7Z9dhfkNMtGu3MCAwEAAaOCAQUwggEBMAkGA1UdEwQCMAAw
LAYJYIZIAYb4QgENBB8WHU9wZW5TU0wgR2VuZXJhdGVkIENlcnRpZmljYXRlMB0G
A1UdDgQWBBRy3sZy9JF4qqkBMwfADI7TGxUAkDCBpgYDVR0jBIGeMIGbgBT8kHeb
elEpeKcjI4N3ZToO6ewvZqF4pHYwdDELMAkGA1UEBhMCVVMxFjAUBgNVBAgTDU1h
c3NhY2h1c2V0dHMxDzANBgNVBAcTBkJvc3RvbjEUMBIGA1UEChMLWWFsdUFuZE1p
a2UxDDAKBgNVBAoTA09yZzEYMBYGA1UEAxMPeWFsdWFuZG1pa2UuY29tggkAyIbg
i4uKEnEwDQYJKoZIhvcNAQEEBQADgYEAXe16lurCUTeSgUqKPL+YwEfHO6e8S90U
ag1JhJG4aQ7lqdy6ipW0vvUj8LYMIe0kuvQxb1hZhQDOnsxfEkIsSD7RHGJkLV4z
TznmEwYGmJ97RjvkX+oNM5lNqwPh9oas8lNn1oIlMz2mjsuCBpAe+Qd0TyCYIrBl
ungHyr7eMPk=
-----END CERTIFICATE-----
