Certificate:
    Data:
        Version: 3 (0x2)
        Serial Number: 10 (0xa)
        Signature Algorithm: md5WithRSAEncryption
        Issuer: C=US, ST=Massachusetts, L=Boston, O=YaluAndMike, O=Org, CN=yaluandmike.com
        Validity
            Not Before: Feb  4 20:06:02 2012 GMT
            Not After : Feb  3 20:06:02 2013 GMT
        Subject: C=US, ST=Massachusetts, L=Boston, O=YaluAndMike, O=Org, CN=example.com
        Subject Public Key Info:
            Public Key Algorithm: rsaEncryption
            RSA Public Key: (1024 bit)
                Modulus (1024 bit):
                    00:b7:5e:ba:b6:42:6d:a1:82:f1:7d:d8:05:2c:54:
                    34:02:fe:c9:4a:a4:9a:4b:08:2f:b2:d7:ff:74:bc:
                    be:c7:32:29:9e:fb:ba:f7:a0:fa:17:9f:f4:ff:2b:
                    ce:87:21:6e:62:25:a0:54:4b:2c:3a:62:33:23:f2:
                    9c:df:37:ac:d6:36:71:30:88:0b:37:76:f7:f1:c6:
                    af:82:71:18:45:b7:7c:5e:9e:85:75:74:16:c6:db:
                    78:47:04:65:96:8d:95:c7:c5:7b:ba:98:e3:75:c8:
                    45:52:20:fd:2c:4e:c3:a0:88:53:53:a5:19:ac:0f:
                    35:79:64:d4:54:c7:d2:61:4f
                Exponent: 65537 (0x10001)
        X509v3 extensions:
            X509v3 Basic Constraints: 
                CA:FALSE
            Netscape Comment: 
                OpenSSL Generated Certificate
            X509v3 Subject Key Identifier: 
                66:79:B7:5D:9D:24:11:C1:FA:8B:86:7D:42:74:9F:07:D5:21:90:E3
            X509v3 Authority Key Identifier: 
                keyid:FC:90:77:9B:7A:51:29:78:A7:23:23:83:77:65:3A:0E:E9:EC:2F:66
                DirName:/C=US/ST=Massachusetts/L=Boston/O=YaluAndMike/O=Org/CN=yaluandmike.com
                serial:C8:86:E0:8B:8B:8A:12:71

    Signature Algorithm: md5WithRSAEncryption
        25:bb:28:fe:dd:71:cc:33:af:63:05:22:e8:11:72:6b:89:41:
        80:48:4e:b0:3a:df:44:7e:ae:4b:1d:42:f1:3e:01:0f:ef:89:
        3b:f5:a3:b2:c5:dd:3c:41:56:ef:84:3e:3c:1f:c4:52:62:00:
        91:6a:f1:37:2c:14:10:34:7e:04:86:cf:51:a5:e5:40:0a:e1:
        15:6e:fb:e4:1c:8d:35:b5:89:04:cc:ba:e2:86:f1:b0:a9:a8:
        e3:f8:f6:03:7a:b7:79:85:9b:a4:dd:55:3d:bd:18:77:dc:8c:
        4d:7f:94:47:0b:56:1d:1f:30:cb:47:6f:d9:d0:a0:33:ce:05:
        ba:8f
-----BEGIN CERTIFICATE-----
MIIDYTCCAsqgAwIBAgIBCjANBgkqhkiG9w0BAQQFADB0MQswCQYDVQQGEwJVUzEW
MBQGA1UECBMNTWFzc2FjaHVzZXR0czEPMA0GA1UEBxMGQm9zdG9uMRQwEgYDVQQK
EwtZYWx1QW5kTWlrZTEMMAoGA1UEChMDT3JnMRgwFgYDVQQDEw95YWx1YW5kbWlr
ZS5jb20wHhcNMTIwMjA0MjAwNjAyWhcNMTMwMjAzMjAwNjAyWjBwMQswCQYDVQQG
EwJVUzEWMBQGA1UECBMNTWFzc2FjaHVzZXR0czEPMA0GA1UEBxMGQm9zdG9uMRQw
EgYDVQQKEwtZYWx1QW5kTWlrZTEMMAoGA1UEChMDT3JnMRQwEgYDVQQDEwtleGFt
cGxlLmNvbTCBnzANBgkqhkiG9w0BAQEFAAOBjQAwgYkCgYEAt166tkJtoYLxfdgF
LFQ0Av7JSqSaSwgvstf/dLy+xzIpnvu696D6F5/0/yvOhyFuYiWgVEssOmIzI/Kc
3zes1jZxMIgLN3b38cavgnEYRbd8Xp6FdXQWxtt4RwRllo2Vx8V7upjjdchFUiD9
LE7DoIhTU6UZrA81eWTUVMfSYU8CAwEAAaOCAQUwggEBMAkGA1UdEwQCMAAwLAYJ
YIZIAYb4QgENBB8WHU9wZW5TU0wgR2VuZXJhdGVkIENlcnRpZmljYXRlMB0GA1Ud
DgQWBBRmebddnSQRwfqLhn1CdJ8H1SGQ4zCBpgYDVR0jBIGeMIGbgBT8kHebelEp
eKcjI4N3ZToO6ewvZqF4pHYwdDELMAkGA1UEBhMCVVMxFjAUBgNVBAgTDU1hc3Nh
Y2h1c2V0dHMxDzANBgNVBAcTBkJvc3RvbjEUMBIGA1UEChMLWWFsdUFuZE1pa2Ux
DDAKBgNVBAoTA09yZzEYMBYGA1UEAxMPeWFsdWFuZG1pa2UuY29tggkAyIbgi4uK
EnEwDQYJKoZIhvcNAQEEBQADgYEAJbso/t1xzDOvYwUi6BFya4lBgEhOsDrfRH6u
Sx1C8T4BD++JO/WjssXdPEFW74Q+PB/EUmIAkWrxNywUEDR+BIbPUaXlQArhFW77
5ByNNbWJBMy64obxsKmo4/j2A3q3eYWbpN1VPb0Yd9yMTX+URwtWHR8wy0dv2dCg
M84Fuo8=
-----END CERTIFICATE-----
